target datalayout = "e-m:e-p270:32:32-p271:32:32-p272:64:64-i64:64-i128:128-f80:128-n8:16:32:64-S128"
target triple = "x86_64-unknown-linux-gnu"

%"class.icu_75::UObject" = type { ptr }
%"class.icu_75::SpoofImpl" = type <{ %"class.icu_75::UObject", %"class.icu_75::IcuCApiHelper", i32, ptr, ptr, ptr, i32, [4 x i8] }>
%"class.icu_75::IcuCApiHelper" = type { i32 }

; Function Attrs: mustprogress uwtable
define void @uspoof_setChecks_75(ptr noundef %sc, i32 noundef %checks, ptr noundef %status) #0 {
entry:
  %sc.addr = alloca ptr, align 8
  %checks.addr = alloca i32, align 4
  %status.addr = alloca ptr, align 8
  %This = alloca ptr, align 8
  store ptr %sc, ptr %sc.addr, align 8
  store i32 %checks, ptr %checks.addr, align 4
  store ptr %status, ptr %status.addr, align 8
  %0 = load ptr, ptr %sc.addr, align 8
  %1 = load ptr, ptr %status.addr, align 8
  %call = call noundef ptr @_ZN6icu_759SpoofImpl12validateThisEP13USpoofCheckerR10UErrorCode(ptr noundef %0, ptr noundef nonnull align 4 dereferenceable(4) %1)
  store ptr %call, ptr %This, align 8
  %2 = load ptr, ptr %This, align 8
  %cmp = icmp eq ptr %2, null
  br i1 %cmp, label %if.then, label %if.end

if.then:                                          ; preds = %entry
  br label %return

if.end:                                           ; preds = %entry
  %3 = load i32, ptr %checks.addr, align 4
  %and = and i32 %3, -1073807360
  %tobool = icmp ne i32 %and, 0
  br i1 %tobool, label %if.then1, label %if.end2

if.then1:                                         ; preds = %if.end
  %4 = load ptr, ptr %status.addr, align 8
  store i32 1, ptr %4, align 4
  br label %return

if.end2:                                          ; preds = %if.end
  %5 = load i32, ptr %checks.addr, align 4
  %6 = load ptr, ptr %This, align 8
  %fChecks = getelementptr inbounds %"class.icu_75::SpoofImpl", ptr %6, i32 0, i32 2
  store i32 %5, ptr %fChecks, align 4
  br label %return

return:                                           ; preds = %if.end2, %if.then1, %if.then
  ret void
}