; Function Attrs: mustprogress uwtable
define void @uspoof_setChecks_75(ptr noundef %sc, i32 noundef %checks, ptr noundef nonnull %status) local_unnamed_addr #0 {
entry:
  %call = tail call noundef ptr @_ZN6icu_759SpoofImpl12validateThisEP13USpoofCheckerR10UErrorCode(ptr noundef %sc, ptr noundef nonnull align 4 dereferenceable(4) %status)
  %cmp = icmp eq ptr %call, null
  br i1 %cmp, label %return, label %if.end

if.end:                                           ; preds = %entry
  %and = and i32 %checks, -1073807360
  %tobool.not = icmp eq i32 %and, 0
  br i1 %tobool.not, label %if.end2, label %if.then1

if.then1:                                         ; preds = %if.end
  store i32 1, ptr %status, align 4
  br label %return

if.end2:                                          ; preds = %if.end
  %fChecks = getelementptr inbounds i8, ptr %call, i64 12
  store i32 %checks, ptr %fChecks, align 4
  br label %return

return:                                           ; preds = %entry, %if.end2, %if.then1
  ret void
}